target datalayout = "e-m:e-p270:32:32-p271:32:32-p272:64:64-i64:64-i128:128-f80:128-n8:16:32:64-S128"
target triple = "x86_64-pc-linux-gnu"

%union.pthread_mutex_t = type { %struct.__pthread_mutex_s }
%struct.__pthread_mutex_s = type { i32, i32, i32, i32, i32, i16, i16, %struct.__pthread_internal_list }
%struct.__pthread_internal_list = type { ptr, ptr }
%union.pthread_cond_t = type { %struct.__pthread_cond_s }
%struct.__pthread_cond_s = type { %union.__atomic_wide_counter, %union.__atomic_wide_counter, [2 x i32], [2 x i32], i32, i32, [2 x i32] }
%union.__atomic_wide_counter = type { i64 }
%struct.stepd_step_rec_t = type { ptr, ptr, i32, %union.pthread_cond_t, %union.pthread_mutex_t, %struct.slurm_step_id_msg, i32, i32, i32, i32, i32, i32, ptr, ptr, i32, i32, ptr, i32, i32, i32, i32, i32, ptr, ptr, ptr, ptr, i32, i32, i64, i64, i16, i32, ptr, ptr, ptr, i32, ptr, i32, ptr, i32, ptr, i16, i32, i32, i32, ptr, i32, ptr, ptr, ptr, ptr, i32, i32, ptr, ptr, i8, i8, i8, i64, i32, ptr, ptr, ptr, ptr, ptr, ptr, ptr, ptr, ptr, ptr, i32, i32, ptr, i8, %union.pthread_cond_t, %union.pthread_mutex_t, i64, ptr, i32, i32, i32, ptr, i64, ptr, ptr, i8, ptr, i16, ptr, ptr, ptr, ptr, ptr, ptr, i64, ptr, i64, ptr, i16, i8, i16, i32, ptr, i16, ptr, ptr, i16, ptr, ptr, ptr, i8 }
%struct.slurm_step_id_msg = type { i64, i32, i32, i32 }

@.str.26 = private unnamed_addr constant [6 x i8] c"req.c\00", align 1
@.str.36 = private unnamed_addr constant [45 x i8] c"%s:%d: %s: safe_write (%zu of %d) failed: %m\00", align 1
@.str.37 = private unnamed_addr constant [48 x i8] c"%s:%d: %s: safe_write (%zu of %d) partial write\00", align 1
@.str.128 = private unnamed_addr constant [26 x i8] c"_handle_list_pids for %ps\00", align 1
@__func__._handle_list_pids = private unnamed_addr constant [18 x i8] c"_handle_list_pids\00", align 1

; Function Attrs: nounwind uwtable
define internal i32 @_handle_list_pids(i32 noundef %0, ptr noundef %1) #0 {
  %3 = alloca i32, align 4
  %4 = alloca i32, align 4
  %5 = alloca ptr, align 8
  %6 = alloca ptr, align 8
  %7 = alloca i32, align 4
  %8 = alloca i32, align 4
  %9 = alloca i64, align 8
  %10 = alloca ptr, align 8
  %11 = alloca i32, align 4
  %12 = alloca i32, align 4
  %13 = alloca i32, align 4
  %14 = alloca i64, align 8
  %15 = alloca ptr, align 8
  %16 = alloca i32, align 4
  store i32 %0, ptr %4, align 4
  store ptr %1, ptr %5, align 8
  call void @llvm.lifetime.start.p0(i64 8, ptr %6) #10
  store ptr null, ptr %6, align 8
  call void @llvm.lifetime.start.p0(i64 4, ptr %7) #10
  store i32 0, ptr %7, align 4
  call void @llvm.lifetime.start.p0(i64 4, ptr %8) #10
  br label %17

17:                                               ; preds = %2
  br label %18

18:                                               ; preds = %17
  %19 = call i32 @get_log_level()
  %20 = icmp sge i32 %19, 5
  br i1 %20, label %21, label %24

21:                                               ; preds = %18
  %22 = load ptr, ptr %5, align 8
  %23 = getelementptr inbounds nuw %struct.stepd_step_rec_t, ptr %22, i32 0, i32 5
  call void (i32, ptr, ...) @log_var(i32 noundef 5, ptr noundef @.str.128, ptr noundef %23)
  br label %24

24:                                               ; preds = %21, %18
  br label %25

25:                                               ; preds = %24
  br label %26

26:                                               ; preds = %25
  br label %27

27:                                               ; preds = %26
  br label %28

28:                                               ; preds = %27
  %29 = load ptr, ptr %5, align 8
  %30 = getelementptr inbounds nuw %struct.stepd_step_rec_t, ptr %29, i32 0, i32 82
  %31 = load i64, ptr %30, align 8
  %32 = call i32 @proctrack_g_get_pids(i64 noundef %31, ptr noundef %6, ptr noundef %7)
  br label %33

33:                                               ; preds = %28
  call void @llvm.lifetime.start.p0(i64 8, ptr %9) #10
  store i64 4, ptr %9, align 8
  call void @llvm.lifetime.start.p0(i64 8, ptr %10) #10
  store ptr %7, ptr %10, align 8
  call void @llvm.lifetime.start.p0(i64 4, ptr %11) #10
  br label %34

34:                                               ; preds = %90, %53, %33
  %35 = load i64, ptr %9, align 8
  %36 = icmp ugt i64 %35, 0
  br i1 %36, label %37, label %91

37:                                               ; preds = %34
  %38 = load i32, ptr %4, align 4
  %39 = load ptr, ptr %10, align 8
  %40 = load i64, ptr %9, align 8
  %41 = call i64 @write(i32 noundef %38, ptr noundef %39, i64 noundef %40)
  %42 = trunc i64 %41 to i32
  store i32 %42, ptr %11, align 4
  %43 = load i32, ptr %11, align 4
  %44 = icmp slt i32 %43, 0
  br i1 %44, label %45, label %66

45:                                               ; preds = %37
  %46 = call ptr @__errno_location() #11
  %47 = load i32, ptr %46, align 4
  %48 = icmp eq i32 %47, 11
  br i1 %48, label %53, label %49

49:                                               ; preds = %45
  %50 = call ptr @__errno_location() #11
  %51 = load i32, ptr %50, align 4
  %52 = icmp eq i32 %51, 4
  br i1 %52, label %53, label %54

53:                                               ; preds = %49, %45
  br label %34, !llvm.loop !81

54:                                               ; preds = %49
  br label %55

55:                                               ; preds = %54
  br label %56

56:                                               ; preds = %55
  %57 = call i32 @get_log_level()
  %58 = icmp sge i32 %57, 5
  br i1 %58, label %59, label %61

59:                                               ; preds = %56
  %60 = load i64, ptr %9, align 8
  call void (i32, ptr, ...) @log_var(i32 noundef 5, ptr noundef @.str.36, ptr noundef @.str.26, i32 noundef 2400, ptr noundef @__func__._handle_list_pids, i64 noundef %60, i32 noundef 4)
  br label %61

61:                                               ; preds = %59, %56
  br label %62

62:                                               ; preds = %61
  br label %63

63:                                               ; preds = %62
  br label %64

64:                                               ; preds = %63
  br label %65

65:                                               ; preds = %64
  store i32 14, ptr %12, align 4
  br label %92

66:                                               ; preds = %37
  %67 = load i32, ptr %11, align 4
  %68 = load ptr, ptr %10, align 8
  %69 = sext i32 %67 to i64
  %70 = getelementptr inbounds i8, ptr %68, i64 %69
  store ptr %70, ptr %10, align 8
  %71 = load i32, ptr %11, align 4
  %72 = sext i32 %71 to i64
  %73 = load i64, ptr %9, align 8
  %74 = sub i64 %73, %72
  store i64 %74, ptr %9, align 8
  %75 = load i64, ptr %9, align 8
  %76 = icmp ugt i64 %75, 0
  br i1 %76, label %77, label %89

77:                                               ; preds = %66
  br label %78

78:                                               ; preds = %77
  br label %79

79:                                               ; preds = %78
  %80 = call i32 @get_log_level()
  %81 = icmp sge i32 %80, 7
  br i1 %81, label %82, label %84

82:                                               ; preds = %79
  %83 = load i64, ptr %9, align 8
  call void (i32, ptr, ...) @log_var(i32 noundef 7, ptr noundef @.str.37, ptr noundef @.str.26, i32 noundef 2400, ptr noundef @__func__._handle_list_pids, i64 noundef %83, i32 noundef 4)
  br label %84

84:                                               ; preds = %82, %79
  br label %85

85:                                               ; preds = %84
  br label %86

86:                                               ; preds = %85
  br label %87

87:                                               ; preds = %86
  br label %88

88:                                               ; preds = %87
  br label %89

89:                                               ; preds = %88, %66
  br label %90

90:                                               ; preds = %89
  br label %34, !llvm.loop !81

91:                                               ; preds = %34
  store i32 0, ptr %12, align 4
  br label %92

92:                                               ; preds = %65, %91
  call void @llvm.lifetime.end.p0(i64 4, ptr %11) #10
  call void @llvm.lifetime.end.p0(i64 8, ptr %10) #10
  call void @llvm.lifetime.end.p0(i64 8, ptr %9) #10
  %93 = load i32, ptr %12, align 4
  switch i32 %93, label %187 [
    i32 0, label %94
    i32 14, label %182
  ]

94:                                               ; preds = %92
  br label %95

95:                                               ; preds = %94
  br label %96

96:                                               ; preds = %95
  call void @llvm.lifetime.start.p0(i64 4, ptr %13) #10
  store i32 0, ptr %13, align 4
  br label %97

97:                                               ; preds = %172, %96
  %98 = load i32, ptr %13, align 4
  %99 = load i32, ptr %7, align 4
  %100 = icmp slt i32 %98, %99
  br i1 %100, label %102, label %101

101:                                              ; preds = %97
  store i32 19, ptr %12, align 4
  br label %175

102:                                              ; preds = %97
  %103 = load ptr, ptr %6, align 8
  %104 = load i32, ptr %13, align 4
  %105 = sext i32 %104 to i64
  %106 = getelementptr inbounds i32, ptr %103, i64 %105
  %107 = load i32, ptr %106, align 4
  store i32 %107, ptr %8, align 4
  br label %108

108:                                              ; preds = %102
  call void @llvm.lifetime.start.p0(i64 8, ptr %14) #10
  store i64 4, ptr %14, align 8
  call void @llvm.lifetime.start.p0(i64 8, ptr %15) #10
  store ptr %8, ptr %15, align 8
  call void @llvm.lifetime.start.p0(i64 4, ptr %16) #10
  br label %109

109:                                              ; preds = %165, %128, %108
  %110 = load i64, ptr %14, align 8
  %111 = icmp ugt i64 %110, 0
  br i1 %111, label %112, label %166

112:                                              ; preds = %109
  %113 = load i32, ptr %4, align 4
  %114 = load ptr, ptr %15, align 8
  %115 = load i64, ptr %14, align 8
  %116 = call i64 @write(i32 noundef %113, ptr noundef %114, i64 noundef %115)
  %117 = trunc i64 %116 to i32
  store i32 %117, ptr %16, align 4
  %118 = load i32, ptr %16, align 4
  %119 = icmp slt i32 %118, 0
  br i1 %119, label %120, label %141

120:                                              ; preds = %112
  %121 = call ptr @__errno_location() #11
  %122 = load i32, ptr %121, align 4
  %123 = icmp eq i32 %122, 11
  br i1 %123, label %128, label %124

124:                                              ; preds = %120
  %125 = call ptr @__errno_location() #11
  %126 = load i32, ptr %125, align 4
  %127 = icmp eq i32 %126, 4
  br i1 %127, label %128, label %129

128:                                              ; preds = %124, %120
  br label %109, !llvm.loop !82

129:                                              ; preds = %124
  br label %130

130:                                              ; preds = %129
  br label %131

131:                                              ; preds = %130
  %132 = call i32 @get_log_level()
  %133 = icmp sge i32 %132, 5
  br i1 %133, label %134, label %136

134:                                              ; preds = %131
  %135 = load i64, ptr %14, align 8
  call void (i32, ptr, ...) @log_var(i32 noundef 5, ptr noundef @.str.36, ptr noundef @.str.26, i32 noundef 2403, ptr noundef @__func__._handle_list_pids, i64 noundef %135, i32 noundef 4)
  br label %136

136:                                              ; preds = %134, %131
  br label %137

137:                                              ; preds = %136
  br label %138

138:                                              ; preds = %137
  br label %139

139:                                              ; preds = %138
  br label %140

140:                                              ; preds = %139
  store i32 14, ptr %12, align 4
  br label %167

141:                                              ; preds = %112
  %142 = load i32, ptr %16, align 4
  %143 = load ptr, ptr %15, align 8
  %144 = sext i32 %142 to i64
  %145 = getelementptr inbounds i8, ptr %143, i64 %144
  store ptr %145, ptr %15, align 8
  %146 = load i32, ptr %16, align 4
  %147 = sext i32 %146 to i64
  %148 = load i64, ptr %14, align 8
  %149 = sub i64 %148, %147
  store i64 %149, ptr %14, align 8
  %150 = load i64, ptr %14, align 8
  %151 = icmp ugt i64 %150, 0
  br i1 %151, label %152, label %164

152:                                              ; preds = %141
  br label %153

153:                                              ; preds = %152
  br label %154

154:                                              ; preds = %153
  %155 = call i32 @get_log_level()
  %156 = icmp sge i32 %155, 7
  br i1 %156, label %157, label %159

157:                                              ; preds = %154
  %158 = load i64, ptr %14, align 8
  call void (i32, ptr, ...) @log_var(i32 noundef 7, ptr noundef @.str.37, ptr noundef @.str.26, i32 noundef 2403, ptr noundef @__func__._handle_list_pids, i64 noundef %158, i32 noundef 4)
  br label %159

159:                                              ; preds = %157, %154
  br label %160

160:                                              ; preds = %159
  br label %161

161:                                              ; preds = %160
  br label %162

162:                                              ; preds = %161
  br label %163

163:                                              ; preds = %162
  br label %164

164:                                              ; preds = %163, %141
  br label %165

165:                                              ; preds = %164
  br label %109, !llvm.loop !82

166:                                              ; preds = %109
  store i32 0, ptr %12, align 4
  br label %167

167:                                              ; preds = %140, %166
  call void @llvm.lifetime.end.p0(i64 4, ptr %16) #10
  call void @llvm.lifetime.end.p0(i64 8, ptr %15) #10
  call void @llvm.lifetime.end.p0(i64 8, ptr %14) #10
  %168 = load i32, ptr %12, align 4
  switch i32 %168, label %175 [
    i32 0, label %169
  ]

169:                                              ; preds = %167
  br label %170

170:                                              ; preds = %169
  br label %171

171:                                              ; preds = %170
  br label %172

172:                                              ; preds = %171
  %173 = load i32, ptr %13, align 4
  %174 = add nsw i32 %173, 1
  store i32 %174, ptr %13, align 4
  br label %97, !llvm.loop !83

175:                                              ; preds = %167, %101
  call void @llvm.lifetime.end.p0(i64 4, ptr %13) #10
  %176 = load i32, ptr %12, align 4
  switch i32 %176, label %187 [
    i32 19, label %177
    i32 14, label %182
  ]

177:                                              ; preds = %175
  %178 = load i32, ptr %7, align 4
  %179 = icmp sgt i32 %178, 0
  br i1 %179, label %180, label %181

180:                                              ; preds = %177
  call void @slurm_xfree(ptr noundef %6)
  br label %181

181:                                              ; preds = %180, %177
  store i32 0, ptr %3, align 4
  store i32 1, ptr %12, align 4
  br label %187

182:                                              ; preds = %175, %92
  %183 = load i32, ptr %7, align 4
  %184 = icmp sgt i32 %183, 0
  br i1 %184, label %185, label %186

185:                                              ; preds = %182
  call void @slurm_xfree(ptr noundef %6)
  br label %186

186:                                              ; preds = %185, %182
  store i32 -1, ptr %3, align 4
  store i32 1, ptr %12, align 4
  br label %187

187:                                              ; preds = %186, %181, %175, %92
  call void @llvm.lifetime.end.p0(i64 4, ptr %8) #10
  call void @llvm.lifetime.end.p0(i64 4, ptr %7) #10
  call void @llvm.lifetime.end.p0(i64 8, ptr %6) #10
  %188 = load i32, ptr %3, align 4
  ret i32 %188
}