; Function Attrs: nounwind uwtable
define internal fastcc range(i32 -1, 1) i32 @_handle_list_pids(i32 noundef %0, ptr noundef %1) unnamed_addr #0 {
  %3 = alloca ptr, align 8
  %4 = alloca i32, align 4
  %5 = alloca i32, align 4
  call void @llvm.lifetime.start.p0(i64 8, ptr nonnull %3) #13
  store ptr null, ptr %3, align 8
  call void @llvm.lifetime.start.p0(i64 4, ptr nonnull %4) #13
  store i32 0, ptr %4, align 4
  call void @llvm.lifetime.start.p0(i64 4, ptr nonnull %5) #13
  %6 = tail call i32 @get_log_level() #13
  %7 = icmp sgt i32 %6, 4
  br i1 %7, label %8, label %10

8:                                                ; preds = %2
  %9 = getelementptr inbounds nuw i8, ptr %1, i64 112
  tail call void (i32, ptr, ...) @log_var(i32 noundef 5, ptr noundef nonnull @.str.128, ptr noundef nonnull %9) #13
  br label %10

10:                                               ; preds = %8, %2
  %11 = getelementptr inbounds nuw i8, ptr %1, i64 696
  %12 = load i64, ptr %11, align 8
  %13 = call i32 @proctrack_g_get_pids(i64 noundef %12, ptr noundef nonnull %3, ptr noundef nonnull %4) #13
  br label %.lr.ph.split

.lr.ph.split:                                     ; preds = %.lr.ph.split.backedge, %10
  %.036.ph71 = phi i64 [ 4, %10 ], [ %29, %.lr.ph.split.backedge ]
  %.037.ph69 = phi ptr [ %4, %10 ], [ %28, %.lr.ph.split.backedge ]
  %14 = call i64 @write(i32 noundef %0, ptr noundef %.037.ph69, i64 noundef %.036.ph71) #13
  %15 = and i64 %14, 2147483648
  %.not4467 = icmp eq i64 %15, 0
  br i1 %.not4467, label %.split.us, label %.lr.ph68

.lr.ph68:                                         ; preds = %.lr.ph.split
  %16 = tail call ptr @__errno_location() #14
  br label %19

.preheader:                                       ; preds = %.split.us
  %17 = load i32, ptr %4, align 4
  %18 = icmp sgt i32 %17, 0
  br i1 %18, label %.lr.ph93, label %._crit_edge.thread

19:                                               ; preds = %.lr.ph68, %21
  %20 = load i32, ptr %16, align 4
  switch i32 %20, label %.split62.us [
    i32 11, label %21
    i32 4, label %21
  ]

21:                                               ; preds = %19, %19
  %22 = call i64 @write(i32 noundef %0, ptr noundef %.037.ph69, i64 noundef %.036.ph71) #13
  %23 = and i64 %22, 2147483648
  %.not44 = icmp eq i64 %23, 0
  br i1 %.not44, label %.split.us, label %19

.split62.us:                                      ; preds = %19
  %24 = call i32 @get_log_level() #13
  %25 = icmp sgt i32 %24, 4
  br i1 %25, label %26, label %.thread

26:                                               ; preds = %.split62.us
  call void (i32, ptr, ...) @log_var(i32 noundef 5, ptr noundef nonnull @.str.36, ptr noundef nonnull @.str.26, i32 noundef 2400, ptr noundef nonnull @__func__._handle_list_pids, i64 noundef %.036.ph71, i32 noundef 4) #13
  br label %.thread

.split.us:                                        ; preds = %21, %.lr.ph.split
  %.us-phi = phi i64 [ %14, %.lr.ph.split ], [ %22, %21 ]
  %27 = and i64 %.us-phi, 2147483647
  %28 = getelementptr inbounds nuw i8, ptr %.037.ph69, i64 %27
  %29 = sub i64 %.036.ph71, %27
  %.not45 = icmp eq i64 %29, 0
  br i1 %.not45, label %.preheader, label %30

30:                                               ; preds = %.split.us
  %31 = call i32 @get_log_level() #13
  %32 = icmp sgt i32 %31, 6
  br i1 %32, label %33, label %.lr.ph.split.backedge

33:                                               ; preds = %30
  call void (i32, ptr, ...) @log_var(i32 noundef 7, ptr noundef nonnull @.str.37, ptr noundef nonnull @.str.26, i32 noundef 2400, ptr noundef nonnull @__func__._handle_list_pids, i64 noundef %29, i32 noundef 4) #13
  br label %.lr.ph.split.backedge

.lr.ph.split.backedge:                            ; preds = %33, %30
  br label %.lr.ph.split, !llvm.loop !80

.lr.ph93:                                         ; preds = %.preheader, %._crit_edge.split.us
  %indvars.iv = phi i64 [ %indvars.iv.next, %._crit_edge.split.us ], [ 0, %.preheader ]
  %34 = load ptr, ptr %3, align 8
  %35 = getelementptr inbounds nuw i32, ptr %34, i64 %indvars.iv
  %36 = load i32, ptr %35, align 4
  store i32 %36, ptr %5, align 4
  br label %.lr.ph74.split

.lr.ph74.split:                                   ; preds = %.lr.ph74.split.backedge, %.lr.ph93
  %.032.ph89 = phi ptr [ %5, %.lr.ph93 ], [ %49, %.lr.ph74.split.backedge ]
  %.033.ph87 = phi i64 [ 4, %.lr.ph93 ], [ %50, %.lr.ph74.split.backedge ]
  %37 = call i64 @write(i32 noundef %0, ptr noundef %.032.ph89, i64 noundef %.033.ph87) #13
  %38 = and i64 %37, 2147483648
  %.not4784 = icmp eq i64 %38, 0
  br i1 %.not4784, label %.split76.us, label %.lr.ph85

.lr.ph85:                                         ; preds = %.lr.ph74.split
  %39 = tail call ptr @__errno_location() #14
  br label %40

40:                                               ; preds = %.lr.ph85, %42
  %41 = load i32, ptr %39, align 4
  switch i32 %41, label %.split79.us [
    i32 11, label %42
    i32 4, label %42
  ]

42:                                               ; preds = %40, %40
  %43 = call i64 @write(i32 noundef %0, ptr noundef %.032.ph89, i64 noundef %.033.ph87) #13
  %44 = and i64 %43, 2147483648
  %.not47 = icmp eq i64 %44, 0
  br i1 %.not47, label %.split76.us, label %40

.split79.us:                                      ; preds = %40
  %45 = call i32 @get_log_level() #13
  %46 = icmp sgt i32 %45, 4
  br i1 %46, label %47, label %.thread

47:                                               ; preds = %.split79.us
  call void (i32, ptr, ...) @log_var(i32 noundef 5, ptr noundef nonnull @.str.36, ptr noundef nonnull @.str.26, i32 noundef 2403, ptr noundef nonnull @__func__._handle_list_pids, i64 noundef %.033.ph87, i32 noundef 4) #13
  br label %.thread

.split76.us:                                      ; preds = %42, %.lr.ph74.split
  %.us-phi77 = phi i64 [ %37, %.lr.ph74.split ], [ %43, %42 ]
  %48 = and i64 %.us-phi77, 2147483647
  %49 = getelementptr inbounds nuw i8, ptr %.032.ph89, i64 %48
  %50 = sub i64 %.033.ph87, %48
  %.not48 = icmp eq i64 %50, 0
  br i1 %.not48, label %._crit_edge.split.us, label %51

51:                                               ; preds = %.split76.us
  %52 = call i32 @get_log_level() #13
  %53 = icmp sgt i32 %52, 6
  br i1 %53, label %54, label %.lr.ph74.split.backedge

54:                                               ; preds = %51
  call void (i32, ptr, ...) @log_var(i32 noundef 7, ptr noundef nonnull @.str.37, ptr noundef nonnull @.str.26, i32 noundef 2403, ptr noundef nonnull @__func__._handle_list_pids, i64 noundef %50, i32 noundef 4) #13
  br label %.lr.ph74.split.backedge

.lr.ph74.split.backedge:                          ; preds = %54, %51
  br label %.lr.ph74.split, !llvm.loop !81

._crit_edge.split.us:                             ; preds = %.split76.us
  %indvars.iv.next = add nuw nsw i64 %indvars.iv, 1
  %55 = load i32, ptr %4, align 4
  %56 = sext i32 %55 to i64
  %57 = icmp slt i64 %indvars.iv.next, %56
  br i1 %57, label %.lr.ph93, label %._crit_edge, !llvm.loop !82

._crit_edge:                                      ; preds = %._crit_edge.split.us
  %58 = icmp sgt i32 %55, 0
  br i1 %58, label %._crit_edge.thread.sink.split, label %._crit_edge.thread

.thread:                                          ; preds = %.split62.us, %26, %47, %.split79.us
  %59 = load i32, ptr %4, align 4
  %60 = icmp sgt i32 %59, 0
  br i1 %60, label %._crit_edge.thread.sink.split, label %._crit_edge.thread

._crit_edge.thread.sink.split:                    ; preds = %.thread, %._crit_edge
  %.0.ph = phi i32 [ 0, %._crit_edge ], [ -1, %.thread ]
  call void @slurm_xfree(ptr noundef nonnull %3) #13
  br label %._crit_edge.thread

._crit_edge.thread:                               ; preds = %._crit_edge.thread.sink.split, %.preheader, %.thread, %._crit_edge
  %.0 = phi i32 [ 0, %._crit_edge ], [ -1, %.thread ], [ 0, %.preheader ], [ %.0.ph, %._crit_edge.thread.sink.split ]
  call void @llvm.lifetime.end.p0(i64 4, ptr nonnull %5) #13
  call void @llvm.lifetime.end.p0(i64 4, ptr nonnull %4) #13
  call void @llvm.lifetime.end.p0(i64 8, ptr nonnull %3) #13
  ret i32 %.0
}